ARM GAS  C:\Users\kotaro\AppData\Local\Temp\cc8cxr1T.s 			page 1


   1              		.cpu cortex-m4
   2              		.eabi_attribute 27, 1
   3              		.eabi_attribute 28, 1
   4              		.eabi_attribute 20, 1
   5              		.eabi_attribute 21, 1
   6              		.eabi_attribute 23, 3
   7              		.eabi_attribute 24, 1
   8              		.eabi_attribute 25, 1
   9              		.eabi_attribute 26, 1
  10              		.eabi_attribute 30, 1
  11              		.eabi_attribute 34, 1
  12              		.eabi_attribute 18, 4
  13              		.file	"main.c"
  14              		.text
  15              	.Ltext0:
  16              		.cfi_sections	.debug_frame
  17              		.section	.text.__io_putchar,"ax",%progbits
  18              		.align	1
  19              		.global	__io_putchar
  20              		.syntax unified
  21              		.thumb
  22              		.thumb_func
  23              		.fpu fpv4-sp-d16
  25              	__io_putchar:
  26              	.LFB126:
  27              		.file 1 "Src/main.c"
   1:Src/main.c    **** /**
   2:Src/main.c    ****   ******************************************************************************
   3:Src/main.c    ****   * @file           : main.c
   4:Src/main.c    ****   * @brief          : Main program body
   5:Src/main.c    ****   ******************************************************************************
   6:Src/main.c    ****   ** This notice applies to any and all portions of this file
   7:Src/main.c    ****   * that are not between comment pairs USER CODE BEGIN and
   8:Src/main.c    ****   * USER CODE END. Other portions of this file, whether 
   9:Src/main.c    ****   * inserted by the user or by software development tools
  10:Src/main.c    ****   * are owned by their respective copyright owners.
  11:Src/main.c    ****   *
  12:Src/main.c    ****   * COPYRIGHT(c) 2018 STMicroelectronics
  13:Src/main.c    ****   *
  14:Src/main.c    ****   * Redistribution and use in source and binary forms, with or without modification,
  15:Src/main.c    ****   * are permitted provided that the following conditions are met:
  16:Src/main.c    ****   *   1. Redistributions of source code must retain the above copyright notice,
  17:Src/main.c    ****   *      this list of conditions and the following disclaimer.
  18:Src/main.c    ****   *   2. Redistributions in binary form must reproduce the above copyright notice,
  19:Src/main.c    ****   *      this list of conditions and the following disclaimer in the documentation
  20:Src/main.c    ****   *      and/or other materials provided with the distribution.
  21:Src/main.c    ****   *   3. Neither the name of STMicroelectronics nor the names of its contributors
  22:Src/main.c    ****   *      may be used to endorse or promote products derived from this software
  23:Src/main.c    ****   *      without specific prior written permission.
  24:Src/main.c    ****   *
  25:Src/main.c    ****   * THIS SOFTWARE IS PROVIDED BY THE COPYRIGHT HOLDERS AND CONTRIBUTORS "AS IS"
  26:Src/main.c    ****   * AND ANY EXPRESS OR IMPLIED WARRANTIES, INCLUDING, BUT NOT LIMITED TO, THE
  27:Src/main.c    ****   * IMPLIED WARRANTIES OF MERCHANTABILITY AND FITNESS FOR A PARTICULAR PURPOSE ARE
  28:Src/main.c    ****   * DISCLAIMED. IN NO EVENT SHALL THE COPYRIGHT HOLDER OR CONTRIBUTORS BE LIABLE
  29:Src/main.c    ****   * FOR ANY DIRECT, INDIRECT, INCIDENTAL, SPECIAL, EXEMPLARY, OR CONSEQUENTIAL
  30:Src/main.c    ****   * DAMAGES (INCLUDING, BUT NOT LIMITED TO, PROCUREMENT OF SUBSTITUTE GOODS OR
  31:Src/main.c    ****   * SERVICES; LOSS OF USE, DATA, OR PROFITS; OR BUSINESS INTERRUPTION) HOWEVER
ARM GAS  C:\Users\kotaro\AppData\Local\Temp\cc8cxr1T.s 			page 2


  32:Src/main.c    ****   * CAUSED AND ON ANY THEORY OF LIABILITY, WHETHER IN CONTRACT, STRICT LIABILITY,
  33:Src/main.c    ****   * OR TORT (INCLUDING NEGLIGENCE OR OTHERWISE) ARISING IN ANY WAY OUT OF THE USE
  34:Src/main.c    ****   * OF THIS SOFTWARE, EVEN IF ADVISED OF THE POSSIBILITY OF SUCH DAMAGE.
  35:Src/main.c    ****   *
  36:Src/main.c    ****   ******************************************************************************
  37:Src/main.c    ****   */
  38:Src/main.c    **** /* Includes ------------------------------------------------------------------*/
  39:Src/main.c    **** #include "main.h"
  40:Src/main.c    **** #include "stm32f4xx_hal.h"
  41:Src/main.c    **** #include "adc.h"
  42:Src/main.c    **** #include "dma.h"
  43:Src/main.c    **** #include "spi.h"
  44:Src/main.c    **** #include "tim.h"
  45:Src/main.c    **** #include "usart.h"
  46:Src/main.c    **** #include "gpio.h"
  47:Src/main.c    **** 
  48:Src/main.c    **** /* USER CODE BEGIN Includes */
  49:Src/main.c    **** #include "stdint.h"
  50:Src/main.c    **** #include "filter.h"
  51:Src/main.c    **** #include "flash.h"
  52:Src/main.c    **** #include "interface.h"
  53:Src/main.c    **** #include "mode.h"
  54:Src/main.c    **** 
  55:Src/main.c    **** /* USER CODE END Includes */
  56:Src/main.c    **** 
  57:Src/main.c    **** /* Private variables ---------------------------------------------------------*/
  58:Src/main.c    **** 
  59:Src/main.c    **** /* USER CODE BEGIN PV */
  60:Src/main.c    **** #ifdef __GNUC__
  61:Src/main.c    **** #define PUTCHAR_PROTOTYPE int __io_putchar(int ch)
  62:Src/main.c    **** #else
  63:Src/main.c    **** #define PUTCHAR_PROTOTYPE int fputc(int ch, FILE *f)
  64:Src/main.c    **** #endif /* __GNUC__ */
  65:Src/main.c    **** void __io_putchar(uint8_t ch)
  66:Src/main.c    **** {
  28              		.loc 1 66 0
  29              		.cfi_startproc
  30              		@ args = 0, pretend = 0, frame = 8
  31              		@ frame_needed = 0, uses_anonymous_args = 0
  32              	.LVL0:
  33 0000 00B5     		push	{lr}
  34              	.LCFI0:
  35              		.cfi_def_cfa_offset 4
  36              		.cfi_offset 14, -4
  37 0002 83B0     		sub	sp, sp, #12
  38              	.LCFI1:
  39              		.cfi_def_cfa_offset 16
  40 0004 02A9     		add	r1, sp, #8
  41 0006 01F8010D 		strb	r0, [r1, #-1]!
  67:Src/main.c    ****   HAL_UART_Transmit(&huart3, &ch, 1, 1);
  42              		.loc 1 67 0
  43 000a 0123     		movs	r3, #1
  44 000c 1A46     		mov	r2, r3
  45 000e 0348     		ldr	r0, .L3
  46              	.LVL1:
  47 0010 FFF7FEFF 		bl	HAL_UART_Transmit
  48              	.LVL2:
ARM GAS  C:\Users\kotaro\AppData\Local\Temp\cc8cxr1T.s 			page 3


  68:Src/main.c    **** }
  49              		.loc 1 68 0
  50 0014 03B0     		add	sp, sp, #12
  51              	.LCFI2:
  52              		.cfi_def_cfa_offset 4
  53              		@ sp needed
  54 0016 5DF804FB 		ldr	pc, [sp], #4
  55              	.L4:
  56 001a 00BF     		.align	2
  57              	.L3:
  58 001c 00000000 		.word	huart3
  59              		.cfi_endproc
  60              	.LFE126:
  62              		.global	__aeabi_f2d
  63              		.section	.text.Main_Init,"ax",%progbits
  64              		.align	1
  65              		.global	Main_Init
  66              		.syntax unified
  67              		.thumb
  68              		.thumb_func
  69              		.fpu fpv4-sp-d16
  71              	Main_Init:
  72              	.LFB129:
  69:Src/main.c    **** /* Private variables ---------------------------------------------------------*/
  70:Src/main.c    **** extern gyro_t gyro;
  71:Src/main.c    **** /* USER CODE END PV */
  72:Src/main.c    **** 
  73:Src/main.c    **** /* Private function prototypes -----------------------------------------------*/
  74:Src/main.c    **** void SystemClock_Config(void);
  75:Src/main.c    **** 
  76:Src/main.c    **** /* USER CODE BEGIN PFP */
  77:Src/main.c    **** /* Private function prototypes -----------------------------------------------*/
  78:Src/main.c    **** void Main_Init(void);
  79:Src/main.c    **** /* USER CODE END PFP */
  80:Src/main.c    **** 
  81:Src/main.c    **** /* USER CODE BEGIN 0 */
  82:Src/main.c    **** 
  83:Src/main.c    **** /* USER CODE END 0 */
  84:Src/main.c    **** 
  85:Src/main.c    **** /**
  86:Src/main.c    ****   * @brief  The application entry point.
  87:Src/main.c    ****   *
  88:Src/main.c    ****   * @retval None
  89:Src/main.c    ****   */
  90:Src/main.c    **** int main(void)
  91:Src/main.c    **** {
  92:Src/main.c    ****   /* USER CODE BEGIN 1 */
  93:Src/main.c    **** 
  94:Src/main.c    ****   /* USER CODE END 1 */
  95:Src/main.c    **** 
  96:Src/main.c    ****   /* MCU Configuration----------------------------------------------------------*/
  97:Src/main.c    **** 
  98:Src/main.c    ****   /* Reset of all peripherals, Initializes the Flash interface and the Systick. */
  99:Src/main.c    ****   HAL_Init();
 100:Src/main.c    **** 
 101:Src/main.c    ****   /* USER CODE BEGIN Init */
 102:Src/main.c    **** 
ARM GAS  C:\Users\kotaro\AppData\Local\Temp\cc8cxr1T.s 			page 4


 103:Src/main.c    ****   /* USER CODE END Init */
 104:Src/main.c    **** 
 105:Src/main.c    ****   /* Configure the system clock */
 106:Src/main.c    ****   SystemClock_Config();
 107:Src/main.c    **** 
 108:Src/main.c    ****   /* USER CODE BEGIN SysInit */
 109:Src/main.c    **** 
 110:Src/main.c    ****   /* USER CODE END SysInit */
 111:Src/main.c    **** 
 112:Src/main.c    ****   /* Initialize all configured peripherals */
 113:Src/main.c    ****   MX_GPIO_Init();
 114:Src/main.c    ****   MX_DMA_Init();
 115:Src/main.c    ****   MX_USART3_UART_Init();
 116:Src/main.c    ****   MX_TIM4_Init();
 117:Src/main.c    ****   MX_SPI2_Init();
 118:Src/main.c    ****   MX_TIM3_Init();
 119:Src/main.c    ****   MX_TIM2_Init();
 120:Src/main.c    ****   MX_TIM1_Init();
 121:Src/main.c    ****   MX_ADC1_Init();
 122:Src/main.c    ****   MX_ADC2_Init();
 123:Src/main.c    ****   /* USER CODE BEGIN 2 */
 124:Src/main.c    ****   Main_Init();
 125:Src/main.c    ****   /* USER CODE END 2 */
 126:Src/main.c    **** 
 127:Src/main.c    ****   /* Infinite loop */
 128:Src/main.c    ****   /* USER CODE BEGIN WHILE */
 129:Src/main.c    ****   while (1)
 130:Src/main.c    ****   {
 131:Src/main.c    ****     /* USER CODE END WHILE */
 132:Src/main.c    ****     Mode_Mouse(Mode_Select());
 133:Src/main.c    ****     /* USER CODE BEGIN 3 */
 134:Src/main.c    ****   }
 135:Src/main.c    ****   /* USER CODE END 3 */
 136:Src/main.c    **** }
 137:Src/main.c    **** 
 138:Src/main.c    **** /**
 139:Src/main.c    ****   * @brief System Clock Configuration
 140:Src/main.c    ****   * @retval None
 141:Src/main.c    ****   */
 142:Src/main.c    **** void SystemClock_Config(void)
 143:Src/main.c    **** {
 144:Src/main.c    **** 
 145:Src/main.c    ****   RCC_OscInitTypeDef RCC_OscInitStruct;
 146:Src/main.c    ****   RCC_ClkInitTypeDef RCC_ClkInitStruct;
 147:Src/main.c    **** 
 148:Src/main.c    ****   /**Configure the main internal regulator output voltage 
 149:Src/main.c    ****     */
 150:Src/main.c    ****   __HAL_RCC_PWR_CLK_ENABLE();
 151:Src/main.c    **** 
 152:Src/main.c    ****   __HAL_PWR_VOLTAGESCALING_CONFIG(PWR_REGULATOR_VOLTAGE_SCALE1);
 153:Src/main.c    **** 
 154:Src/main.c    ****   /**Initializes the CPU, AHB and APB busses clocks 
 155:Src/main.c    ****     */
 156:Src/main.c    ****   RCC_OscInitStruct.OscillatorType = RCC_OSCILLATORTYPE_HSI;
 157:Src/main.c    ****   RCC_OscInitStruct.HSIState = RCC_HSI_ON;
 158:Src/main.c    ****   RCC_OscInitStruct.HSICalibrationValue = 16;
 159:Src/main.c    ****   RCC_OscInitStruct.PLL.PLLState = RCC_PLL_ON;
ARM GAS  C:\Users\kotaro\AppData\Local\Temp\cc8cxr1T.s 			page 5


 160:Src/main.c    ****   RCC_OscInitStruct.PLL.PLLSource = RCC_PLLSOURCE_HSI;
 161:Src/main.c    ****   RCC_OscInitStruct.PLL.PLLM = 8;
 162:Src/main.c    ****   RCC_OscInitStruct.PLL.PLLN = 80;
 163:Src/main.c    ****   RCC_OscInitStruct.PLL.PLLP = RCC_PLLP_DIV2;
 164:Src/main.c    ****   RCC_OscInitStruct.PLL.PLLQ = 4;
 165:Src/main.c    ****   if (HAL_RCC_OscConfig(&RCC_OscInitStruct) != HAL_OK)
 166:Src/main.c    ****   {
 167:Src/main.c    ****     _Error_Handler(__FILE__, __LINE__);
 168:Src/main.c    ****   }
 169:Src/main.c    **** 
 170:Src/main.c    ****   /**Initializes the CPU, AHB and APB busses clocks 
 171:Src/main.c    ****     */
 172:Src/main.c    ****   RCC_ClkInitStruct.ClockType = RCC_CLOCKTYPE_HCLK | RCC_CLOCKTYPE_SYSCLK | RCC_CLOCKTYPE_PCLK1 | R
 173:Src/main.c    ****   RCC_ClkInitStruct.SYSCLKSource = RCC_SYSCLKSOURCE_PLLCLK;
 174:Src/main.c    ****   RCC_ClkInitStruct.AHBCLKDivider = RCC_SYSCLK_DIV1;
 175:Src/main.c    ****   RCC_ClkInitStruct.APB1CLKDivider = RCC_HCLK_DIV2;
 176:Src/main.c    ****   RCC_ClkInitStruct.APB2CLKDivider = RCC_HCLK_DIV1;
 177:Src/main.c    **** 
 178:Src/main.c    ****   if (HAL_RCC_ClockConfig(&RCC_ClkInitStruct, FLASH_LATENCY_2) != HAL_OK)
 179:Src/main.c    ****   {
 180:Src/main.c    ****     _Error_Handler(__FILE__, __LINE__);
 181:Src/main.c    ****   }
 182:Src/main.c    **** 
 183:Src/main.c    ****   /**Configure the Systick interrupt time 
 184:Src/main.c    ****     */
 185:Src/main.c    ****   HAL_SYSTICK_Config(HAL_RCC_GetHCLKFreq() / 1000);
 186:Src/main.c    **** 
 187:Src/main.c    ****   /**Configure the Systick 
 188:Src/main.c    ****     */
 189:Src/main.c    ****   HAL_SYSTICK_CLKSourceConfig(SYSTICK_CLKSOURCE_HCLK);
 190:Src/main.c    **** 
 191:Src/main.c    ****   /* SysTick_IRQn interrupt configuration */
 192:Src/main.c    ****   HAL_NVIC_SetPriority(SysTick_IRQn, 15, 0);
 193:Src/main.c    **** }
 194:Src/main.c    **** 
 195:Src/main.c    **** /* USER CODE BEGIN 4 */
 196:Src/main.c    **** /****************************************************************************************
 197:Src/main.c    ****  * outline  : init main(setbuf,tim5,3,4,gyro,battery,flag,ms_count)
 198:Src/main.c    ****  * argument : void
 199:Src/main.c    ****  * return   : void
 200:Src/main.c    **** ********************************************************************************************/
 201:Src/main.c    **** void Main_Init(void)
 202:Src/main.c    **** {
  73              		.loc 1 202 0
  74              		.cfi_startproc
  75              		@ args = 0, pretend = 0, frame = 0
  76              		@ frame_needed = 0, uses_anonymous_args = 0
  77 0000 08B5     		push	{r3, lr}
  78              	.LCFI3:
  79              		.cfi_def_cfa_offset 8
  80              		.cfi_offset 3, -8
  81              		.cfi_offset 14, -4
 203:Src/main.c    ****   //start check
 204:Src/main.c    ****   Output_Buzzer(HZ_B);
  82              		.loc 1 204 0
  83 0002 5120     		movs	r0, #81
  84 0004 FFF7FEFF 		bl	Output_Buzzer
ARM GAS  C:\Users\kotaro\AppData\Local\Temp\cc8cxr1T.s 			page 6


  85              	.LVL3:
 205:Src/main.c    ****   Output_Buzzer(HZ_A);
  86              		.loc 1 205 0
  87 0008 5B20     		movs	r0, #91
  88 000a FFF7FEFF 		bl	Output_Buzzer
  89              	.LVL4:
 206:Src/main.c    ****   //printf
 207:Src/main.c    ****   setbuf(stdout, NULL);
  90              		.loc 1 207 0
  91 000e 0F4B     		ldr	r3, .L7
  92 0010 1B68     		ldr	r3, [r3]
  93 0012 0021     		movs	r1, #0
  94 0014 9868     		ldr	r0, [r3, #8]
  95 0016 FFF7FEFF 		bl	setbuf
  96              	.LVL5:
 208:Src/main.c    ****   //tim start
 209:Src/main.c    ****   HAL_TIM_Encoder_Start(&htim3, TIM_CHANNEL_ALL);
  97              		.loc 1 209 0
  98 001a 1821     		movs	r1, #24
  99 001c 0C48     		ldr	r0, .L7+4
 100 001e FFF7FEFF 		bl	HAL_TIM_Encoder_Start
 101              	.LVL6:
 210:Src/main.c    ****   HAL_TIM_Encoder_Start(&htim4, TIM_CHANNEL_ALL);
 102              		.loc 1 210 0
 103 0022 1821     		movs	r1, #24
 104 0024 0B48     		ldr	r0, .L7+8
 105 0026 FFF7FEFF 		bl	HAL_TIM_Encoder_Start
 106              	.LVL7:
 211:Src/main.c    ****   //reset
 212:Src/main.c    ****   //Reset_Value();
 213:Src/main.c    ****   //sensor set
 214:Src/main.c    ****   setSensorConstant();
 107              		.loc 1 214 0
 108 002a FFF7FEFF 		bl	setSensorConstant
 109              	.LVL8:
 215:Src/main.c    ****   //gyro
 216:Src/main.c    ****   set_mpu6500();
 110              		.loc 1 216 0
 111 002e FFF7FEFF 		bl	set_mpu6500
 112              	.LVL9:
 217:Src/main.c    ****   //battry check
 218:Src/main.c    ****   printf("%f\r\n", Filter_GetBatt());
 113              		.loc 1 218 0
 114 0032 FFF7FEFF 		bl	Filter_GetBatt
 115              	.LVL10:
 116 0036 10EE100A 		vmov	r0, s0
 117 003a FFF7FEFF 		bl	__aeabi_f2d
 118              	.LVL11:
 119 003e 0246     		mov	r2, r0
 120 0040 0B46     		mov	r3, r1
 121 0042 0548     		ldr	r0, .L7+12
 122 0044 FFF7FEFF 		bl	printf
 123              	.LVL12:
 219:Src/main.c    **** }
 124              		.loc 1 219 0
 125 0048 08BD     		pop	{r3, pc}
 126              	.L8:
ARM GAS  C:\Users\kotaro\AppData\Local\Temp\cc8cxr1T.s 			page 7


 127 004a 00BF     		.align	2
 128              	.L7:
 129 004c 00000000 		.word	_impure_ptr
 130 0050 00000000 		.word	htim3
 131 0054 00000000 		.word	htim4
 132 0058 00000000 		.word	.LC0
 133              		.cfi_endproc
 134              	.LFE129:
 136              		.section	.text._Error_Handler,"ax",%progbits
 137              		.align	1
 138              		.global	_Error_Handler
 139              		.syntax unified
 140              		.thumb
 141              		.thumb_func
 142              		.fpu fpv4-sp-d16
 144              	_Error_Handler:
 145              	.LFB130:
 220:Src/main.c    **** /* USER CODE END 4 */
 221:Src/main.c    **** 
 222:Src/main.c    **** /**
 223:Src/main.c    ****   * @brief  This function is executed in case of error occurrence.
 224:Src/main.c    ****   * @param  file: The file name as string.
 225:Src/main.c    ****   * @param  line: The line in file as a number.
 226:Src/main.c    ****   * @retval None
 227:Src/main.c    ****   */
 228:Src/main.c    **** void _Error_Handler(char *file, int line)
 229:Src/main.c    **** {
 146              		.loc 1 229 0
 147              		.cfi_startproc
 148              		@ Volatile: function does not return.
 149              		@ args = 0, pretend = 0, frame = 0
 150              		@ frame_needed = 0, uses_anonymous_args = 0
 151              		@ link register save eliminated.
 152              	.LVL13:
 153              	.L10:
 154 0000 FEE7     		b	.L10
 155              		.cfi_endproc
 156              	.LFE130:
 158              		.section	.text.SystemClock_Config,"ax",%progbits
 159              		.align	1
 160              		.global	SystemClock_Config
 161              		.syntax unified
 162              		.thumb
 163              		.thumb_func
 164              		.fpu fpv4-sp-d16
 166              	SystemClock_Config:
 167              	.LFB128:
 143:Src/main.c    **** 
 168              		.loc 1 143 0
 169              		.cfi_startproc
 170              		@ args = 0, pretend = 0, frame = 80
 171              		@ frame_needed = 0, uses_anonymous_args = 0
 143:Src/main.c    **** 
 172              		.loc 1 143 0
 173 0000 00B5     		push	{lr}
 174              	.LCFI4:
 175              		.cfi_def_cfa_offset 4
ARM GAS  C:\Users\kotaro\AppData\Local\Temp\cc8cxr1T.s 			page 8


 176              		.cfi_offset 14, -4
 177 0002 95B0     		sub	sp, sp, #84
 178              	.LCFI5:
 179              		.cfi_def_cfa_offset 88
 180              	.LBB2:
 150:Src/main.c    **** 
 181              		.loc 1 150 0
 182 0004 0022     		movs	r2, #0
 183 0006 0192     		str	r2, [sp, #4]
 184 0008 284B     		ldr	r3, .L17
 185 000a 196C     		ldr	r1, [r3, #64]
 186 000c 41F08051 		orr	r1, r1, #268435456
 187 0010 1964     		str	r1, [r3, #64]
 188 0012 1B6C     		ldr	r3, [r3, #64]
 189 0014 03F08053 		and	r3, r3, #268435456
 190 0018 0193     		str	r3, [sp, #4]
 191 001a 019B     		ldr	r3, [sp, #4]
 192              	.LBE2:
 193              	.LBB3:
 152:Src/main.c    **** 
 194              		.loc 1 152 0
 195 001c 0292     		str	r2, [sp, #8]
 196 001e 244B     		ldr	r3, .L17+4
 197 0020 1968     		ldr	r1, [r3]
 198 0022 41F48041 		orr	r1, r1, #16384
 199 0026 1960     		str	r1, [r3]
 200 0028 1B68     		ldr	r3, [r3]
 201 002a 03F48043 		and	r3, r3, #16384
 202 002e 0293     		str	r3, [sp, #8]
 203 0030 029B     		ldr	r3, [sp, #8]
 204              	.LBE3:
 156:Src/main.c    ****   RCC_OscInitStruct.HSIState = RCC_HSI_ON;
 205              		.loc 1 156 0
 206 0032 0223     		movs	r3, #2
 207 0034 0893     		str	r3, [sp, #32]
 157:Src/main.c    ****   RCC_OscInitStruct.HSICalibrationValue = 16;
 208              		.loc 1 157 0
 209 0036 0121     		movs	r1, #1
 210 0038 0B91     		str	r1, [sp, #44]
 158:Src/main.c    ****   RCC_OscInitStruct.PLL.PLLState = RCC_PLL_ON;
 211              		.loc 1 158 0
 212 003a 1021     		movs	r1, #16
 213 003c 0C91     		str	r1, [sp, #48]
 159:Src/main.c    ****   RCC_OscInitStruct.PLL.PLLSource = RCC_PLLSOURCE_HSI;
 214              		.loc 1 159 0
 215 003e 0E93     		str	r3, [sp, #56]
 160:Src/main.c    ****   RCC_OscInitStruct.PLL.PLLM = 8;
 216              		.loc 1 160 0
 217 0040 0F92     		str	r2, [sp, #60]
 161:Src/main.c    ****   RCC_OscInitStruct.PLL.PLLN = 80;
 218              		.loc 1 161 0
 219 0042 0822     		movs	r2, #8
 220 0044 1092     		str	r2, [sp, #64]
 162:Src/main.c    ****   RCC_OscInitStruct.PLL.PLLP = RCC_PLLP_DIV2;
 221              		.loc 1 162 0
 222 0046 5022     		movs	r2, #80
 223 0048 1192     		str	r2, [sp, #68]
ARM GAS  C:\Users\kotaro\AppData\Local\Temp\cc8cxr1T.s 			page 9


 163:Src/main.c    ****   RCC_OscInitStruct.PLL.PLLQ = 4;
 224              		.loc 1 163 0
 225 004a 1293     		str	r3, [sp, #72]
 164:Src/main.c    ****   if (HAL_RCC_OscConfig(&RCC_OscInitStruct) != HAL_OK)
 226              		.loc 1 164 0
 227 004c 0423     		movs	r3, #4
 228 004e 1393     		str	r3, [sp, #76]
 165:Src/main.c    ****   {
 229              		.loc 1 165 0
 230 0050 08A8     		add	r0, sp, #32
 231 0052 FFF7FEFF 		bl	HAL_RCC_OscConfig
 232              	.LVL14:
 233 0056 08BB     		cbnz	r0, .L15
 172:Src/main.c    ****   RCC_ClkInitStruct.SYSCLKSource = RCC_SYSCLKSOURCE_PLLCLK;
 234              		.loc 1 172 0
 235 0058 0F23     		movs	r3, #15
 236 005a 0393     		str	r3, [sp, #12]
 173:Src/main.c    ****   RCC_ClkInitStruct.AHBCLKDivider = RCC_SYSCLK_DIV1;
 237              		.loc 1 173 0
 238 005c 0221     		movs	r1, #2
 239 005e 0491     		str	r1, [sp, #16]
 174:Src/main.c    ****   RCC_ClkInitStruct.APB1CLKDivider = RCC_HCLK_DIV2;
 240              		.loc 1 174 0
 241 0060 0023     		movs	r3, #0
 242 0062 0593     		str	r3, [sp, #20]
 175:Src/main.c    ****   RCC_ClkInitStruct.APB2CLKDivider = RCC_HCLK_DIV1;
 243              		.loc 1 175 0
 244 0064 4FF48052 		mov	r2, #4096
 245 0068 0692     		str	r2, [sp, #24]
 176:Src/main.c    **** 
 246              		.loc 1 176 0
 247 006a 0793     		str	r3, [sp, #28]
 178:Src/main.c    ****   {
 248              		.loc 1 178 0
 249 006c 03A8     		add	r0, sp, #12
 250 006e FFF7FEFF 		bl	HAL_RCC_ClockConfig
 251              	.LVL15:
 252 0072 B8B9     		cbnz	r0, .L16
 185:Src/main.c    **** 
 253              		.loc 1 185 0
 254 0074 FFF7FEFF 		bl	HAL_RCC_GetHCLKFreq
 255              	.LVL16:
 256 0078 0E4B     		ldr	r3, .L17+8
 257 007a A3FB0030 		umull	r3, r0, r3, r0
 258 007e 8009     		lsrs	r0, r0, #6
 259 0080 FFF7FEFF 		bl	HAL_SYSTICK_Config
 260              	.LVL17:
 189:Src/main.c    **** 
 261              		.loc 1 189 0
 262 0084 0420     		movs	r0, #4
 263 0086 FFF7FEFF 		bl	HAL_SYSTICK_CLKSourceConfig
 264              	.LVL18:
 192:Src/main.c    **** }
 265              		.loc 1 192 0
 266 008a 0022     		movs	r2, #0
 267 008c 0F21     		movs	r1, #15
 268 008e 4FF0FF30 		mov	r0, #-1
ARM GAS  C:\Users\kotaro\AppData\Local\Temp\cc8cxr1T.s 			page 10


 269 0092 FFF7FEFF 		bl	HAL_NVIC_SetPriority
 270              	.LVL19:
 193:Src/main.c    **** 
 271              		.loc 1 193 0
 272 0096 15B0     		add	sp, sp, #84
 273              	.LCFI6:
 274              		.cfi_remember_state
 275              		.cfi_def_cfa_offset 4
 276              		@ sp needed
 277 0098 5DF804FB 		ldr	pc, [sp], #4
 278              	.L15:
 279              	.LCFI7:
 280              		.cfi_restore_state
 167:Src/main.c    ****   }
 281              		.loc 1 167 0
 282 009c A721     		movs	r1, #167
 283 009e 0648     		ldr	r0, .L17+12
 284 00a0 FFF7FEFF 		bl	_Error_Handler
 285              	.LVL20:
 286              	.L16:
 180:Src/main.c    ****   }
 287              		.loc 1 180 0
 288 00a4 B421     		movs	r1, #180
 289 00a6 0448     		ldr	r0, .L17+12
 290 00a8 FFF7FEFF 		bl	_Error_Handler
 291              	.LVL21:
 292              	.L18:
 293              		.align	2
 294              	.L17:
 295 00ac 00380240 		.word	1073887232
 296 00b0 00700040 		.word	1073770496
 297 00b4 D34D6210 		.word	274877907
 298 00b8 00000000 		.word	.LC1
 299              		.cfi_endproc
 300              	.LFE128:
 302              		.section	.text.main,"ax",%progbits
 303              		.align	1
 304              		.global	main
 305              		.syntax unified
 306              		.thumb
 307              		.thumb_func
 308              		.fpu fpv4-sp-d16
 310              	main:
 311              	.LFB127:
  91:Src/main.c    ****   /* USER CODE BEGIN 1 */
 312              		.loc 1 91 0
 313              		.cfi_startproc
 314              		@ Volatile: function does not return.
 315              		@ args = 0, pretend = 0, frame = 0
 316              		@ frame_needed = 0, uses_anonymous_args = 0
 317 0000 08B5     		push	{r3, lr}
 318              	.LCFI8:
 319              		.cfi_def_cfa_offset 8
 320              		.cfi_offset 3, -8
 321              		.cfi_offset 14, -4
  99:Src/main.c    **** 
 322              		.loc 1 99 0
ARM GAS  C:\Users\kotaro\AppData\Local\Temp\cc8cxr1T.s 			page 11


 323 0002 FFF7FEFF 		bl	HAL_Init
 324              	.LVL22:
 106:Src/main.c    **** 
 325              		.loc 1 106 0
 326 0006 FFF7FEFF 		bl	SystemClock_Config
 327              	.LVL23:
 113:Src/main.c    ****   MX_DMA_Init();
 328              		.loc 1 113 0
 329 000a FFF7FEFF 		bl	MX_GPIO_Init
 330              	.LVL24:
 114:Src/main.c    ****   MX_USART3_UART_Init();
 331              		.loc 1 114 0
 332 000e FFF7FEFF 		bl	MX_DMA_Init
 333              	.LVL25:
 115:Src/main.c    ****   MX_TIM4_Init();
 334              		.loc 1 115 0
 335 0012 FFF7FEFF 		bl	MX_USART3_UART_Init
 336              	.LVL26:
 116:Src/main.c    ****   MX_SPI2_Init();
 337              		.loc 1 116 0
 338 0016 FFF7FEFF 		bl	MX_TIM4_Init
 339              	.LVL27:
 117:Src/main.c    ****   MX_TIM3_Init();
 340              		.loc 1 117 0
 341 001a FFF7FEFF 		bl	MX_SPI2_Init
 342              	.LVL28:
 118:Src/main.c    ****   MX_TIM2_Init();
 343              		.loc 1 118 0
 344 001e FFF7FEFF 		bl	MX_TIM3_Init
 345              	.LVL29:
 119:Src/main.c    ****   MX_TIM1_Init();
 346              		.loc 1 119 0
 347 0022 FFF7FEFF 		bl	MX_TIM2_Init
 348              	.LVL30:
 120:Src/main.c    ****   MX_ADC1_Init();
 349              		.loc 1 120 0
 350 0026 FFF7FEFF 		bl	MX_TIM1_Init
 351              	.LVL31:
 121:Src/main.c    ****   MX_ADC2_Init();
 352              		.loc 1 121 0
 353 002a FFF7FEFF 		bl	MX_ADC1_Init
 354              	.LVL32:
 122:Src/main.c    ****   /* USER CODE BEGIN 2 */
 355              		.loc 1 122 0
 356 002e FFF7FEFF 		bl	MX_ADC2_Init
 357              	.LVL33:
 124:Src/main.c    ****   /* USER CODE END 2 */
 358              		.loc 1 124 0
 359 0032 FFF7FEFF 		bl	Main_Init
 360              	.LVL34:
 361              	.L20:
 132:Src/main.c    ****     /* USER CODE BEGIN 3 */
 362              		.loc 1 132 0 discriminator 1
 363 0036 FFF7FEFF 		bl	Mode_Select
 364              	.LVL35:
 365 003a FFF7FEFF 		bl	Mode_Mouse
 366              	.LVL36:
ARM GAS  C:\Users\kotaro\AppData\Local\Temp\cc8cxr1T.s 			page 12


 367 003e FAE7     		b	.L20
 368              		.cfi_endproc
 369              	.LFE127:
 371              		.section	.rodata.Main_Init.str1.4,"aMS",%progbits,1
 372              		.align	2
 373              	.LC0:
 374 0000 25660D0A 		.ascii	"%f\015\012\000"
 374      00
 375              		.section	.rodata.SystemClock_Config.str1.4,"aMS",%progbits,1
 376              		.align	2
 377              	.LC1:
 378 0000 5372632F 		.ascii	"Src/main.c\000"
 378      6D61696E 
 378      2E6300
 379              		.text
 380              	.Letext0:
 381              		.file 2 "c:\\program files (x86)\\gnu tools arm embedded\\7 2017-q4-major\\arm-none-eabi\\include\
 382              		.file 3 "c:\\program files (x86)\\gnu tools arm embedded\\7 2017-q4-major\\arm-none-eabi\\include\
 383              		.file 4 "Drivers/CMSIS/Include/core_cm4.h"
 384              		.file 5 "Drivers/CMSIS/Device/ST/STM32F4xx/Include/system_stm32f4xx.h"
 385              		.file 6 "Drivers/CMSIS/Device/ST/STM32F4xx/Include/stm32f405xx.h"
 386              		.file 7 "c:\\program files (x86)\\gnu tools arm embedded\\7 2017-q4-major\\arm-none-eabi\\include\
 387              		.file 8 "c:\\program files (x86)\\gnu tools arm embedded\\7 2017-q4-major\\arm-none-eabi\\include\
 388              		.file 9 "c:\\program files (x86)\\gnu tools arm embedded\\7 2017-q4-major\\lib\\gcc\\arm-none-eabi
 389              		.file 10 "c:\\program files (x86)\\gnu tools arm embedded\\7 2017-q4-major\\arm-none-eabi\\include
 390              		.file 11 "Drivers/STM32F4xx_HAL_Driver/Inc/stm32f4xx_hal_def.h"
 391              		.file 12 "Drivers/STM32F4xx_HAL_Driver/Inc/stm32f4xx_hal_rcc_ex.h"
 392              		.file 13 "Drivers/STM32F4xx_HAL_Driver/Inc/stm32f4xx_hal_rcc.h"
 393              		.file 14 "Drivers/STM32F4xx_HAL_Driver/Inc/stm32f4xx_hal_dma.h"
 394              		.file 15 "Drivers/STM32F4xx_HAL_Driver/Inc/stm32f4xx_hal_adc.h"
 395              		.file 16 "Drivers/STM32F4xx_HAL_Driver/Inc/stm32f4xx_hal_spi.h"
 396              		.file 17 "Drivers/STM32F4xx_HAL_Driver/Inc/stm32f4xx_hal_tim.h"
 397              		.file 18 "Drivers/STM32F4xx_HAL_Driver/Inc/stm32f4xx_hal_uart.h"
 398              		.file 19 "Inc/adc.h"
 399              		.file 20 "Inc/spi.h"
 400              		.file 21 "Inc/tim.h"
 401              		.file 22 "Inc/usart.h"
 402              		.file 23 "Inc/flash.h"
 403              		.file 24 "Inc/interface.h"
 404              		.file 25 "c:\\program files (x86)\\gnu tools arm embedded\\7 2017-q4-major\\arm-none-eabi\\include
 405              		.file 26 "Inc/filter.h"
 406              		.file 27 "Drivers/STM32F4xx_HAL_Driver/Inc/stm32f4xx_hal_cortex.h"
 407              		.file 28 "Drivers/STM32F4xx_HAL_Driver/Inc/stm32f4xx_hal.h"
 408              		.file 29 "Inc/gpio.h"
 409              		.file 30 "Inc/dma.h"
 410              		.file 31 "Inc/mode.h"
ARM GAS  C:\Users\kotaro\AppData\Local\Temp\cc8cxr1T.s 			page 13

