ARM GAS  C:\Users\kotaro\AppData\Local\Temp\ccg27ypY.s 			page 1


   1              		.cpu cortex-m4
   2              		.eabi_attribute 27, 1
   3              		.eabi_attribute 28, 1
   4              		.eabi_attribute 20, 1
   5              		.eabi_attribute 21, 1
   6              		.eabi_attribute 23, 3
   7              		.eabi_attribute 24, 1
   8              		.eabi_attribute 25, 1
   9              		.eabi_attribute 26, 1
  10              		.eabi_attribute 30, 1
  11              		.eabi_attribute 34, 1
  12              		.eabi_attribute 18, 4
  13              		.file	"maze_info.c"
  14              		.text
  15              	.Ltext0:
  16              		.cfi_sections	.debug_frame
  17              		.section	.text.Maze_Set,"ax",%progbits
  18              		.align	1
  19              		.global	Maze_Set
  20              		.syntax unified
  21              		.thumb
  22              		.thumb_func
  23              		.fpu fpv4-sp-d16
  25              	Maze_Set:
  26              	.LFB126:
  27              		.file 1 "Src/maze_info.c"
   1:Src/maze_info.c **** #include "maze_info.h"
   2:Src/maze_info.c **** #include "filter.h"
   3:Src/maze_info.c **** #include "usart.h"
   4:Src/maze_info.c **** 
   5:Src/maze_info.c **** #ifdef __GNUC__
   6:Src/maze_info.c **** #define PUTCHAR_PROTOTYPE int __io_putchar(int ch)
   7:Src/maze_info.c **** #else
   8:Src/maze_info.c **** #define PUTCHAR_PROTOTYPE int fputc(int ch, FILE *f)
   9:Src/maze_info.c **** #endif /* __GNUC__ */
  10:Src/maze_info.c **** 
  11:Src/maze_info.c **** 
  12:Src/maze_info.c **** #define TRUE 1
  13:Src/maze_info.c **** #define FALSE 0
  14:Src/maze_info.c **** 
  15:Src/maze_info.c **** #define MAX_STEP 255
  16:Src/maze_info.c **** 
  17:Src/maze_info.c **** //direction
  18:Src/maze_info.c **** #define NORTH 0
  19:Src/maze_info.c **** #define EAST 1
  20:Src/maze_info.c **** #define SOUTH 2
  21:Src/maze_info.c **** #define WEST 3
  22:Src/maze_info.c **** 
  23:Src/maze_info.c **** extern sensor_t sen_l;
  24:Src/maze_info.c **** extern sensor_t sen_front;
  25:Src/maze_info.c **** extern sensor_t sen_r;
  26:Src/maze_info.c **** 
  27:Src/maze_info.c **** maze_t maze;
  28:Src/maze_info.c **** unsigned char position;//1~4bit x , 5~8bit y
  29:Src/maze_info.c **** unsigned char direction;
  30:Src/maze_info.c **** 
  31:Src/maze_info.c **** /**************************************************************************************************
ARM GAS  C:\Users\kotaro\AppData\Local\Temp\ccg27ypY.s 			page 2


  32:Src/maze_info.c ****  * outline : input maze size , goal point
  33:Src/maze_info.c ****  * argument : void
  34:Src/maze_info.c ****  * return : void
  35:Src/maze_info.c **** ***************************************************************************************************
  36:Src/maze_info.c **** void Maze_Set(void){
  28              		.loc 1 36 0
  29              		.cfi_startproc
  30              		@ args = 0, pretend = 0, frame = 0
  31              		@ frame_needed = 0, uses_anonymous_args = 0
  32              		@ link register save eliminated.
  37:Src/maze_info.c ****     maze.goal_x = 1;
  33              		.loc 1 37 0
  34 0000 024B     		ldr	r3, .L2
  35 0002 0122     		movs	r2, #1
  36 0004 1A70     		strb	r2, [r3]
  38:Src/maze_info.c ****     maze.goal_y = 0;
  37              		.loc 1 38 0
  38 0006 0022     		movs	r2, #0
  39 0008 5A70     		strb	r2, [r3, #1]
  39:Src/maze_info.c **** }
  40              		.loc 1 39 0
  41 000a 7047     		bx	lr
  42              	.L3:
  43              		.align	2
  44              	.L2:
  45 000c 00000000 		.word	maze
  46              		.cfi_endproc
  47              	.LFE126:
  49              		.section	.text.Maze_Init,"ax",%progbits
  50              		.align	1
  51              		.global	Maze_Init
  52              		.syntax unified
  53              		.thumb
  54              		.thumb_func
  55              		.fpu fpv4-sp-d16
  57              	Maze_Init:
  58              	.LFB127:
  40:Src/maze_info.c **** 
  41:Src/maze_info.c **** 
  42:Src/maze_info.c **** 
  43:Src/maze_info.c **** /**************************************************************************************************
  44:Src/maze_info.c ****  * outline : initialize maze date
  45:Src/maze_info.c ****  * argument : void
  46:Src/maze_info.c ****  * return : void
  47:Src/maze_info.c **** ***************************************************************************************************
  48:Src/maze_info.c **** 
  49:Src/maze_info.c **** void Maze_Init(maze_t *maze) {
  59              		.loc 1 49 0
  60              		.cfi_startproc
  61              		@ args = 0, pretend = 0, frame = 0
  62              		@ frame_needed = 0, uses_anonymous_args = 0
  63              		@ link register save eliminated.
  64              	.LVL0:
  65 0000 30B4     		push	{r4, r5}
  66              	.LCFI0:
  67              		.cfi_def_cfa_offset 8
  68              		.cfi_offset 4, -8
ARM GAS  C:\Users\kotaro\AppData\Local\Temp\ccg27ypY.s 			page 3


  69              		.cfi_offset 5, -4
  70              	.LVL1:
  71              	.LBB2:
  50:Src/maze_info.c **** 	for (unsigned char i = 0; i < WALL_NUM; i++)
  72              		.loc 1 50 0
  73 0002 0025     		movs	r5, #0
  74 0004 0BE0     		b	.L5
  75              	.LVL2:
  76              	.L7:
  77              	.LBB3:
  51:Src/maze_info.c **** 	{
  52:Src/maze_info.c **** 		maze->wall_vertical[i] = 0;
  53:Src/maze_info.c **** 		maze->wall_horizontal[i] = 0;
  54:Src/maze_info.c **** 		maze->wall_ver_search[i] = 0;
  55:Src/maze_info.c **** 		maze->wall_hor_search[i] = 0;
  56:Src/maze_info.c **** 		for (unsigned char j = 0; j < WALL_NUM; j++)
  57:Src/maze_info.c **** 		{
  58:Src/maze_info.c **** 			maze->step[i][j] = MAX_STEP;
  78              		.loc 1 58 0 discriminator 3
  79 0006 00EB0412 		add	r2, r0, r4, lsl #4
  80 000a 1A44     		add	r2, r2, r3
  81 000c FF21     		movs	r1, #255
  82 000e 82F80411 		strb	r1, [r2, #260]
  56:Src/maze_info.c **** 		{
  83              		.loc 1 56 0 discriminator 3
  84 0012 0133     		adds	r3, r3, #1
  85              	.LVL3:
  86 0014 DBB2     		uxtb	r3, r3
  87              	.LVL4:
  88              	.L6:
  56:Src/maze_info.c **** 		{
  89              		.loc 1 56 0 is_stmt 0 discriminator 1
  90 0016 0F2B     		cmp	r3, #15
  91 0018 F5D9     		bls	.L7
  92              	.LBE3:
  50:Src/maze_info.c **** 	for (unsigned char i = 0; i < WALL_NUM; i++)
  93              		.loc 1 50 0 is_stmt 1 discriminator 2
  94 001a 0135     		adds	r5, r5, #1
  95              	.LVL5:
  96 001c EDB2     		uxtb	r5, r5
  97              	.LVL6:
  98              	.L5:
  50:Src/maze_info.c **** 	for (unsigned char i = 0; i < WALL_NUM; i++)
  99              		.loc 1 50 0 is_stmt 0 discriminator 1
 100 001e 0F2D     		cmp	r5, #15
 101 0020 14D8     		bhi	.L10
  52:Src/maze_info.c **** 		maze->wall_horizontal[i] = 0;
 102              		.loc 1 52 0 is_stmt 1
 103 0022 2C46     		mov	r4, r5
 104 0024 00EB8502 		add	r2, r0, r5, lsl #2
 105 0028 0023     		movs	r3, #0
 106 002a 5360     		str	r3, [r2, #4]
  53:Src/maze_info.c **** 		maze->wall_ver_search[i] = 0;
 107              		.loc 1 53 0
 108 002c 05F11002 		add	r2, r5, #16
 109 0030 00EB8202 		add	r2, r0, r2, lsl #2
 110 0034 5360     		str	r3, [r2, #4]
ARM GAS  C:\Users\kotaro\AppData\Local\Temp\ccg27ypY.s 			page 4


  54:Src/maze_info.c **** 		maze->wall_hor_search[i] = 0;
 111              		.loc 1 54 0
 112 0036 05F12002 		add	r2, r5, #32
 113 003a 00EB8202 		add	r2, r0, r2, lsl #2
 114 003e 5360     		str	r3, [r2, #4]
  55:Src/maze_info.c **** 		for (unsigned char j = 0; j < WALL_NUM; j++)
 115              		.loc 1 55 0
 116 0040 05F13002 		add	r2, r5, #48
 117 0044 00EB8202 		add	r2, r0, r2, lsl #2
 118 0048 5360     		str	r3, [r2, #4]
 119              	.LVL7:
 120              	.LBB4:
  56:Src/maze_info.c **** 		{
 121              		.loc 1 56 0
 122 004a E4E7     		b	.L6
 123              	.LVL8:
 124              	.L10:
 125              	.LBE4:
 126              	.LBE2:
  59:Src/maze_info.c **** 		}
  60:Src/maze_info.c **** 	}
  61:Src/maze_info.c **** 	maze->wall_vertical[WALL_NUM - 1] = 0xffff;
 127              		.loc 1 61 0
 128 004c 4FF6FF73 		movw	r3, #65535
 129 0050 0364     		str	r3, [r0, #64]
  62:Src/maze_info.c **** 	maze->wall_ver_search[WALL_NUM - 1] = 0xffff;
 130              		.loc 1 62 0
 131 0052 C0F8C030 		str	r3, [r0, #192]
  63:Src/maze_info.c **** 
  64:Src/maze_info.c **** 	maze->wall_horizontal[WALL_NUM - 1] = 0xffff;
 132              		.loc 1 64 0
 133 0056 C0F88030 		str	r3, [r0, #128]
  65:Src/maze_info.c **** 	maze->wall_hor_search[WALL_NUM - 1] = 0xffff;
 134              		.loc 1 65 0
 135 005a C0F80031 		str	r3, [r0, #256]
  66:Src/maze_info.c **** 
  67:Src/maze_info.c **** 	maze->wall_vertical[0] += 0b1;
 136              		.loc 1 67 0
 137 005e 4368     		ldr	r3, [r0, #4]
 138 0060 0133     		adds	r3, r3, #1
 139 0062 4360     		str	r3, [r0, #4]
  68:Src/maze_info.c **** 	maze->wall_ver_search[0] += 0b1;
 140              		.loc 1 68 0
 141 0064 D0F88430 		ldr	r3, [r0, #132]
 142 0068 0133     		adds	r3, r3, #1
 143 006a C0F88430 		str	r3, [r0, #132]
  69:Src/maze_info.c **** 
  70:Src/maze_info.c **** 	maze->wall_hor_search[0] += 0b1;
 144              		.loc 1 70 0
 145 006e D0F8C430 		ldr	r3, [r0, #196]
 146 0072 0133     		adds	r3, r3, #1
 147 0074 C0F8C430 		str	r3, [r0, #196]
  71:Src/maze_info.c **** }
 148              		.loc 1 71 0
 149 0078 30BC     		pop	{r4, r5}
 150              	.LCFI1:
 151              		.cfi_restore 5
ARM GAS  C:\Users\kotaro\AppData\Local\Temp\ccg27ypY.s 			page 5


 152              		.cfi_restore 4
 153              		.cfi_def_cfa_offset 0
 154              	.LVL9:
 155 007a 7047     		bx	lr
 156              		.cfi_endproc
 157              	.LFE127:
 159              		.section	.text.Maze_Get_Wall,"ax",%progbits
 160              		.align	1
 161              		.global	Maze_Get_Wall
 162              		.syntax unified
 163              		.thumb
 164              		.thumb_func
 165              		.fpu fpv4-sp-d16
 167              	Maze_Get_Wall:
 168              	.LFB128:
  72:Src/maze_info.c **** 
  73:Src/maze_info.c **** 
  74:Src/maze_info.c **** 
  75:Src/maze_info.c **** 
  76:Src/maze_info.c **** void Maze_Get_Wall(void){
 169              		.loc 1 76 0
 170              		.cfi_startproc
 171              		@ args = 0, pretend = 0, frame = 0
 172              		@ frame_needed = 0, uses_anonymous_args = 0
 173              		@ link register save eliminated.
 174 0000 F0B4     		push	{r4, r5, r6, r7}
 175              	.LCFI2:
 176              		.cfi_def_cfa_offset 16
 177              		.cfi_offset 4, -16
 178              		.cfi_offset 5, -12
 179              		.cfi_offset 6, -8
 180              		.cfi_offset 7, -4
 181              	.LVL10:
  77:Src/maze_info.c **** 	unsigned char n_wall=0, e_wall=0, s_wall=0, w_wall=0;
  78:Src/maze_info.c **** 
  79:Src/maze_info.c ****     unsigned char x=position>>4&0b1111;
 182              		.loc 1 79 0
 183 0002 3D4B     		ldr	r3, .L24
 184 0004 1B78     		ldrb	r3, [r3]	@ zero_extendqisi2
 185 0006 1A09     		lsrs	r2, r3, #4
 186              	.LVL11:
  80:Src/maze_info.c ****     unsigned char y=position&0b1111;
 187              		.loc 1 80 0
 188 0008 03F00F03 		and	r3, r3, #15
 189              	.LVL12:
  81:Src/maze_info.c **** 
  82:Src/maze_info.c **** 	// 方向別に壁の状態を取得
  83:Src/maze_info.c **** 	switch(direction){
 190              		.loc 1 83 0
 191 000c 3B49     		ldr	r1, .L24+4
 192 000e 0978     		ldrb	r1, [r1]	@ zero_extendqisi2
 193 0010 0329     		cmp	r1, #3
 194 0012 6CD8     		bhi	.L22
 195 0014 DFE801F0 		tbb	[pc, r1]
 196              	.L14:
 197 0018 02       		.byte	(.L13-.L14)/2
 198 0019 53       		.byte	(.L15-.L14)/2
ARM GAS  C:\Users\kotaro\AppData\Local\Temp\ccg27ypY.s 			page 6


 199 001a 5B       		.byte	(.L16-.L14)/2
 200 001b 63       		.byte	(.L17-.L14)/2
 201              		.p2align 1
 202              	.L13:
  84:Src/maze_info.c **** 	case NORTH:
  85:Src/maze_info.c **** 		n_wall = sen_front.is_wall;
 203              		.loc 1 85 0
 204 001c 3848     		ldr	r0, .L24+8
 205 001e 077B     		ldrb	r7, [r0, #12]	@ zero_extendqisi2
 206              	.LVL13:
  86:Src/maze_info.c **** 		e_wall = sen_r.is_wall;
 207              		.loc 1 86 0
 208 0020 3848     		ldr	r0, .L24+12
 209 0022 067B     		ldrb	r6, [r0, #12]	@ zero_extendqisi2
 210              	.LVL14:
  87:Src/maze_info.c **** 		w_wall = sen_l.is_wall;
 211              		.loc 1 87 0
 212 0024 3848     		ldr	r0, .L24+16
 213 0026 057B     		ldrb	r5, [r0, #12]	@ zero_extendqisi2
 214              	.LVL15:
 215              	.L12:
  88:Src/maze_info.c **** 		s_wall = 0;
  89:Src/maze_info.c **** 		break;
  90:Src/maze_info.c **** 	case EAST:
  91:Src/maze_info.c **** 		e_wall = sen_front.is_wall;
  92:Src/maze_info.c **** 		s_wall = sen_r.is_wall;
  93:Src/maze_info.c **** 		n_wall = sen_l.is_wall;
  94:Src/maze_info.c **** 		w_wall = 0;
  95:Src/maze_info.c **** 		break;
  96:Src/maze_info.c **** 	case SOUTH:
  97:Src/maze_info.c **** 		s_wall = sen_front.is_wall;
  98:Src/maze_info.c **** 		w_wall = sen_r.is_wall;
  99:Src/maze_info.c **** 		e_wall = sen_l.is_wall;
 100:Src/maze_info.c **** 		n_wall = 0;
 101:Src/maze_info.c **** 		break;
 102:Src/maze_info.c **** 	case WEST:
 103:Src/maze_info.c **** 		w_wall = sen_front.is_wall;
 104:Src/maze_info.c **** 		n_wall = sen_r.is_wall;
 105:Src/maze_info.c **** 		s_wall = sen_l.is_wall;
 106:Src/maze_info.c **** 		e_wall = 0;
 107:Src/maze_info.c **** 		break;
 108:Src/maze_info.c **** 	default:
 109:Src/maze_info.c **** 		break;
 110:Src/maze_info.c **** 	}
 111:Src/maze_info.c **** 	// 方向別に保存
 112:Src/maze_info.c **** 	maze.wall_horizontal[y] = maze.wall_horizontal[y]|(n_wall<<x);
 216              		.loc 1 112 0
 217 0028 03F11000 		add	r0, r3, #16
 218 002c 374C     		ldr	r4, .L24+20
 219 002e 04EB8000 		add	r0, r4, r0, lsl #2
 220 0032 4468     		ldr	r4, [r0, #4]
 221 0034 9740     		lsls	r7, r7, r2
 222              	.LVL16:
 223 0036 3C43     		orrs	r4, r4, r7
 224 0038 4460     		str	r4, [r0, #4]
 113:Src/maze_info.c ****     if(y>0){
 225              		.loc 1 113 0
ARM GAS  C:\Users\kotaro\AppData\Local\Temp\ccg27ypY.s 			page 7


 226 003a 43B1     		cbz	r3, .L18
 114:Src/maze_info.c ****         maze.wall_horizontal[y-1] = maze.wall_horizontal[y-1]|(s_wall<<x);
 227              		.loc 1 114 0
 228 003c 03F10F00 		add	r0, r3, #15
 229 0040 324C     		ldr	r4, .L24+20
 230 0042 04EB8000 		add	r0, r4, r0, lsl #2
 231 0046 4468     		ldr	r4, [r0, #4]
 232 0048 9140     		lsls	r1, r1, r2
 233              	.LVL17:
 234 004a 2143     		orrs	r1, r1, r4
 235 004c 4160     		str	r1, [r0, #4]
 236              	.L18:
 115:Src/maze_info.c ****     }
 116:Src/maze_info.c **** 	maze.wall_vertical[x] = maze.wall_vertical[x]|(e_wall<<y);
 237              		.loc 1 116 0
 238 004e 2F49     		ldr	r1, .L24+20
 239 0050 01EB8201 		add	r1, r1, r2, lsl #2
 240 0054 4868     		ldr	r0, [r1, #4]
 241 0056 9E40     		lsls	r6, r6, r3
 242              	.LVL18:
 243 0058 3043     		orrs	r0, r0, r6
 244 005a 4860     		str	r0, [r1, #4]
 117:Src/maze_info.c ****     if(x>0){
 245              		.loc 1 117 0
 246 005c 3AB1     		cbz	r2, .L19
 118:Src/maze_info.c **** 	    maze.wall_vertical[x-1] = maze.wall_vertical[x-1]|(w_wall<<y);
 247              		.loc 1 118 0
 248 005e 511E     		subs	r1, r2, #1
 249 0060 2A48     		ldr	r0, .L24+20
 250 0062 00EB8101 		add	r1, r0, r1, lsl #2
 251 0066 4868     		ldr	r0, [r1, #4]
 252 0068 9D40     		lsls	r5, r5, r3
 253              	.LVL19:
 254 006a 0543     		orrs	r5, r5, r0
 255 006c 4D60     		str	r5, [r1, #4]
 256              	.L19:
 119:Src/maze_info.c ****     }
 120:Src/maze_info.c **** 	
 121:Src/maze_info.c **** 	maze.wall_hor_search[y] = maze.wall_hor_search[y] | (1 << x);
 257              		.loc 1 121 0
 258 006e 03F13000 		add	r0, r3, #48
 259 0072 2649     		ldr	r1, .L24+20
 260 0074 01EB8000 		add	r0, r1, r0, lsl #2
 261 0078 4468     		ldr	r4, [r0, #4]
 262 007a 0121     		movs	r1, #1
 263 007c 9140     		lsls	r1, r1, r2
 264 007e 0C43     		orrs	r4, r4, r1
 265 0080 4460     		str	r4, [r0, #4]
 122:Src/maze_info.c **** 	if (y > 0) {
 266              		.loc 1 122 0
 267 0082 3BB1     		cbz	r3, .L20
 123:Src/maze_info.c **** 		maze.wall_hor_search[y - 1] = maze.wall_hor_search[y - 1] | (1 << x);
 268              		.loc 1 123 0
 269 0084 03F12F00 		add	r0, r3, #47
 270 0088 204C     		ldr	r4, .L24+20
 271 008a 04EB8000 		add	r0, r4, r0, lsl #2
 272 008e 4468     		ldr	r4, [r0, #4]
ARM GAS  C:\Users\kotaro\AppData\Local\Temp\ccg27ypY.s 			page 8


 273 0090 2143     		orrs	r1, r1, r4
 274 0092 4160     		str	r1, [r0, #4]
 275              	.L20:
 124:Src/maze_info.c **** 	}
 125:Src/maze_info.c **** 	maze.wall_ver_search[x] = maze.wall_ver_search[x] | (1 << y);
 276              		.loc 1 125 0
 277 0094 02F12000 		add	r0, r2, #32
 278 0098 1C49     		ldr	r1, .L24+20
 279 009a 01EB8000 		add	r0, r1, r0, lsl #2
 280 009e 4468     		ldr	r4, [r0, #4]
 281 00a0 0121     		movs	r1, #1
 282 00a2 01FA03F3 		lsl	r3, r1, r3
 283              	.LVL20:
 284 00a6 1C43     		orrs	r4, r4, r3
 285 00a8 4460     		str	r4, [r0, #4]
 126:Src/maze_info.c **** 	if (x > 0) {
 286              		.loc 1 126 0
 287 00aa 32B1     		cbz	r2, .L11
 127:Src/maze_info.c **** 		maze.wall_ver_search[x - 1] = maze.wall_ver_search[x - 1] | (1 << y);
 288              		.loc 1 127 0
 289 00ac 1F32     		adds	r2, r2, #31
 290              	.LVL21:
 291 00ae 1749     		ldr	r1, .L24+20
 292 00b0 01EB8202 		add	r2, r1, r2, lsl #2
 293              	.LVL22:
 294 00b4 5168     		ldr	r1, [r2, #4]
 295 00b6 0B43     		orrs	r3, r3, r1
 296 00b8 5360     		str	r3, [r2, #4]
 297              	.L11:
 128:Src/maze_info.c **** 	}
 129:Src/maze_info.c **** }
 298              		.loc 1 129 0
 299 00ba F0BC     		pop	{r4, r5, r6, r7}
 300              	.LCFI3:
 301              		.cfi_remember_state
 302              		.cfi_restore 7
 303              		.cfi_restore 6
 304              		.cfi_restore 5
 305              		.cfi_restore 4
 306              		.cfi_def_cfa_offset 0
 307 00bc 7047     		bx	lr
 308              	.LVL23:
 309              	.L15:
 310              	.LCFI4:
 311              		.cfi_restore_state
  91:Src/maze_info.c **** 		s_wall = sen_r.is_wall;
 312              		.loc 1 91 0
 313 00be 1049     		ldr	r1, .L24+8
 314 00c0 0E7B     		ldrb	r6, [r1, #12]	@ zero_extendqisi2
 315              	.LVL24:
  92:Src/maze_info.c **** 		n_wall = sen_l.is_wall;
 316              		.loc 1 92 0
 317 00c2 1049     		ldr	r1, .L24+12
 318 00c4 097B     		ldrb	r1, [r1, #12]	@ zero_extendqisi2
 319              	.LVL25:
  93:Src/maze_info.c **** 		w_wall = 0;
 320              		.loc 1 93 0
ARM GAS  C:\Users\kotaro\AppData\Local\Temp\ccg27ypY.s 			page 9


 321 00c6 1048     		ldr	r0, .L24+16
 322 00c8 077B     		ldrb	r7, [r0, #12]	@ zero_extendqisi2
 323              	.LVL26:
  94:Src/maze_info.c **** 		break;
 324              		.loc 1 94 0
 325 00ca 0025     		movs	r5, #0
  95:Src/maze_info.c **** 	case SOUTH:
 326              		.loc 1 95 0
 327 00cc ACE7     		b	.L12
 328              	.LVL27:
 329              	.L16:
  97:Src/maze_info.c **** 		w_wall = sen_r.is_wall;
 330              		.loc 1 97 0
 331 00ce 0C49     		ldr	r1, .L24+8
 332 00d0 097B     		ldrb	r1, [r1, #12]	@ zero_extendqisi2
 333              	.LVL28:
  98:Src/maze_info.c **** 		e_wall = sen_l.is_wall;
 334              		.loc 1 98 0
 335 00d2 0C48     		ldr	r0, .L24+12
 336 00d4 057B     		ldrb	r5, [r0, #12]	@ zero_extendqisi2
 337              	.LVL29:
  99:Src/maze_info.c **** 		n_wall = 0;
 338              		.loc 1 99 0
 339 00d6 0C48     		ldr	r0, .L24+16
 340 00d8 067B     		ldrb	r6, [r0, #12]	@ zero_extendqisi2
 341              	.LVL30:
 100:Src/maze_info.c **** 		break;
 342              		.loc 1 100 0
 343 00da 0027     		movs	r7, #0
 101:Src/maze_info.c **** 	case WEST:
 344              		.loc 1 101 0
 345 00dc A4E7     		b	.L12
 346              	.LVL31:
 347              	.L17:
 103:Src/maze_info.c **** 		n_wall = sen_r.is_wall;
 348              		.loc 1 103 0
 349 00de 0849     		ldr	r1, .L24+8
 350 00e0 0D7B     		ldrb	r5, [r1, #12]	@ zero_extendqisi2
 351              	.LVL32:
 104:Src/maze_info.c **** 		s_wall = sen_l.is_wall;
 352              		.loc 1 104 0
 353 00e2 0849     		ldr	r1, .L24+12
 354 00e4 0F7B     		ldrb	r7, [r1, #12]	@ zero_extendqisi2
 355              	.LVL33:
 105:Src/maze_info.c **** 		e_wall = 0;
 356              		.loc 1 105 0
 357 00e6 0849     		ldr	r1, .L24+16
 358 00e8 097B     		ldrb	r1, [r1, #12]	@ zero_extendqisi2
 359              	.LVL34:
 106:Src/maze_info.c **** 		break;
 360              		.loc 1 106 0
 361 00ea 0026     		movs	r6, #0
 107:Src/maze_info.c **** 	default:
 362              		.loc 1 107 0
 363 00ec 9CE7     		b	.L12
 364              	.LVL35:
 365              	.L22:
ARM GAS  C:\Users\kotaro\AppData\Local\Temp\ccg27ypY.s 			page 10


  77:Src/maze_info.c **** 
 366              		.loc 1 77 0
 367 00ee 0025     		movs	r5, #0
 368 00f0 2946     		mov	r1, r5
 369 00f2 2E46     		mov	r6, r5
 370 00f4 2F46     		mov	r7, r5
 371 00f6 97E7     		b	.L12
 372              	.L25:
 373              		.align	2
 374              	.L24:
 375 00f8 00000000 		.word	position
 376 00fc 00000000 		.word	direction
 377 0100 00000000 		.word	sen_front
 378 0104 00000000 		.word	sen_r
 379 0108 00000000 		.word	sen_l
 380 010c 00000000 		.word	maze
 381              		.cfi_endproc
 382              	.LFE128:
 384              		.section	.text.Maze_Printf,"ax",%progbits
 385              		.align	1
 386              		.global	Maze_Printf
 387              		.syntax unified
 388              		.thumb
 389              		.thumb_func
 390              		.fpu fpv4-sp-d16
 392              	Maze_Printf:
 393              	.LFB129:
 130:Src/maze_info.c **** 
 131:Src/maze_info.c **** 
 132:Src/maze_info.c **** void Maze_Printf(maze_t maze) {
 394              		.loc 1 132 0
 395              		.cfi_startproc
 396              		@ args = 516, pretend = 16, frame = 0
 397              		@ frame_needed = 0, uses_anonymous_args = 0
 398 0000 84B0     		sub	sp, sp, #16
 399              	.LCFI5:
 400              		.cfi_def_cfa_offset 16
 401 0002 70B5     		push	{r4, r5, r6, lr}
 402              	.LCFI6:
 403              		.cfi_def_cfa_offset 32
 404              		.cfi_offset 4, -32
 405              		.cfi_offset 5, -28
 406              		.cfi_offset 6, -24
 407              		.cfi_offset 14, -20
 408 0004 04AC     		add	r4, sp, #16
 409 0006 84E80F00 		stm	r4, {r0, r1, r2, r3}
 133:Src/maze_info.c **** 	printf("\r\n");
 410              		.loc 1 133 0
 411 000a 2D48     		ldr	r0, .L42
 412 000c FFF7FEFF 		bl	puts
 413              	.LVL36:
 414              	.LBB5:
 134:Src/maze_info.c **** 	for (unsigned char j = WALL_NUM; j > 0; j--)
 415              		.loc 1 134 0
 416 0010 1025     		movs	r5, #16
 417 0012 41E0     		b	.L27
 418              	.LVL37:
ARM GAS  C:\Users\kotaro\AppData\Local\Temp\ccg27ypY.s 			page 11


 419              	.L28:
 420              	.LBB6:
 135:Src/maze_info.c **** 	{
 136:Src/maze_info.c **** 		for (unsigned char i = 0; i < WALL_NUM; i++)
 137:Src/maze_info.c **** 		{
 138:Src/maze_info.c **** 			printf("+");
 139:Src/maze_info.c **** 			if (maze.wall_horizontal[j-1] & 0b1 << i)
 140:Src/maze_info.c **** 			{
 141:Src/maze_info.c **** 				printf("---");
 142:Src/maze_info.c **** 			}
 143:Src/maze_info.c **** 			else
 144:Src/maze_info.c **** 			{
 145:Src/maze_info.c **** 				printf("   ");
 421              		.loc 1 145 0
 422 0014 2B48     		ldr	r0, .L42+4
 423 0016 FFF7FEFF 		bl	printf
 424              	.LVL38:
 425              	.L29:
 136:Src/maze_info.c **** 		{
 426              		.loc 1 136 0 discriminator 2
 427 001a 0134     		adds	r4, r4, #1
 428              	.LVL39:
 429 001c E4B2     		uxtb	r4, r4
 430              	.LVL40:
 431              	.L35:
 136:Src/maze_info.c **** 		{
 432              		.loc 1 136 0 is_stmt 0 discriminator 1
 433 001e 0F2C     		cmp	r4, #15
 434 0020 10D8     		bhi	.L40
 138:Src/maze_info.c **** 			if (maze.wall_horizontal[j-1] & 0b1 << i)
 435              		.loc 1 138 0 is_stmt 1
 436 0022 2B20     		movs	r0, #43
 437 0024 FFF7FEFF 		bl	putchar
 438              	.LVL41:
 139:Src/maze_info.c **** 			{
 439              		.loc 1 139 0
 440 0028 05F10F03 		add	r3, r5, #15
 441 002c 04AA     		add	r2, sp, #16
 442 002e 02EB8303 		add	r3, r2, r3, lsl #2
 443 0032 5A68     		ldr	r2, [r3, #4]
 444 0034 0123     		movs	r3, #1
 445 0036 A340     		lsls	r3, r3, r4
 446 0038 1A42     		tst	r2, r3
 447 003a EBD0     		beq	.L28
 141:Src/maze_info.c **** 			}
 448              		.loc 1 141 0
 449 003c 2248     		ldr	r0, .L42+8
 450 003e FFF7FEFF 		bl	printf
 451              	.LVL42:
 452 0042 EAE7     		b	.L29
 453              	.L40:
 454              	.LBE6:
 146:Src/maze_info.c **** 			}
 147:Src/maze_info.c **** 		}
 148:Src/maze_info.c **** 		printf("+\r\n");
 455              		.loc 1 148 0
 456 0044 2148     		ldr	r0, .L42+12
ARM GAS  C:\Users\kotaro\AppData\Local\Temp\ccg27ypY.s 			page 12


 457 0046 FFF7FEFF 		bl	puts
 458              	.LVL43:
 149:Src/maze_info.c **** 		printf("|");
 459              		.loc 1 149 0
 460 004a 7C20     		movs	r0, #124
 461 004c FFF7FEFF 		bl	putchar
 462              	.LVL44:
 463              	.LBB7:
 150:Src/maze_info.c **** 		for (unsigned char i = 0; i < WALL_NUM; i++)
 464              		.loc 1 150 0
 465 0050 0024     		movs	r4, #0
 466              	.LVL45:
 467 0052 04E0     		b	.L31
 468              	.LVL46:
 469              	.L32:
 151:Src/maze_info.c **** 		{
 152:Src/maze_info.c **** 			printf("%3d", maze.step[i][j-1]);
 153:Src/maze_info.c **** 			if (maze.wall_vertical[i] & 0b1 << (j - 1)) {
 154:Src/maze_info.c **** 				printf("|");
 155:Src/maze_info.c **** 			}
 156:Src/maze_info.c **** 			else
 157:Src/maze_info.c **** 			{
 158:Src/maze_info.c **** 				printf(" ");
 470              		.loc 1 158 0
 471 0054 2020     		movs	r0, #32
 472 0056 FFF7FEFF 		bl	putchar
 473              	.LVL47:
 474              	.L33:
 150:Src/maze_info.c **** 		for (unsigned char i = 0; i < WALL_NUM; i++)
 475              		.loc 1 150 0 discriminator 2
 476 005a 0134     		adds	r4, r4, #1
 477              	.LVL48:
 478 005c E4B2     		uxtb	r4, r4
 479              	.LVL49:
 480              	.L31:
 150:Src/maze_info.c **** 		for (unsigned char i = 0; i < WALL_NUM; i++)
 481              		.loc 1 150 0 is_stmt 0 discriminator 1
 482 005e 0F2C     		cmp	r4, #15
 483 0060 15D8     		bhi	.L41
 152:Src/maze_info.c **** 			if (maze.wall_vertical[i] & 0b1 << (j - 1)) {
 484              		.loc 1 152 0 is_stmt 1
 485 0062 6E1E     		subs	r6, r5, #1
 486 0064 04AB     		add	r3, sp, #16
 487 0066 03EB0413 		add	r3, r3, r4, lsl #4
 488 006a 3344     		add	r3, r3, r6
 489 006c 93F80411 		ldrb	r1, [r3, #260]	@ zero_extendqisi2
 490 0070 1748     		ldr	r0, .L42+16
 491 0072 FFF7FEFF 		bl	printf
 492              	.LVL50:
 153:Src/maze_info.c **** 				printf("|");
 493              		.loc 1 153 0
 494 0076 04AB     		add	r3, sp, #16
 495 0078 03EB8403 		add	r3, r3, r4, lsl #2
 496 007c 5A68     		ldr	r2, [r3, #4]
 497 007e 0123     		movs	r3, #1
 498 0080 B340     		lsls	r3, r3, r6
 499 0082 1A42     		tst	r2, r3
ARM GAS  C:\Users\kotaro\AppData\Local\Temp\ccg27ypY.s 			page 13


 500 0084 E6D0     		beq	.L32
 154:Src/maze_info.c **** 			}
 501              		.loc 1 154 0
 502 0086 7C20     		movs	r0, #124
 503 0088 FFF7FEFF 		bl	putchar
 504              	.LVL51:
 505 008c E5E7     		b	.L33
 506              	.L41:
 507              	.LBE7:
 159:Src/maze_info.c **** 			}
 160:Src/maze_info.c **** 		}
 161:Src/maze_info.c **** 		printf("\r\n");
 508              		.loc 1 161 0 discriminator 2
 509 008e 0C48     		ldr	r0, .L42
 510 0090 FFF7FEFF 		bl	puts
 511              	.LVL52:
 134:Src/maze_info.c **** 	{
 512              		.loc 1 134 0 discriminator 2
 513 0094 013D     		subs	r5, r5, #1
 514              	.LVL53:
 515 0096 EDB2     		uxtb	r5, r5
 516              	.LVL54:
 517              	.L27:
 134:Src/maze_info.c **** 	{
 518              		.loc 1 134 0 is_stmt 0 discriminator 1
 519 0098 4DB1     		cbz	r5, .L36
 520              	.LBB8:
 136:Src/maze_info.c **** 		{
 521              		.loc 1 136 0 is_stmt 1
 522 009a 0024     		movs	r4, #0
 523 009c BFE7     		b	.L35
 524              	.LVL55:
 525              	.L37:
 526              	.LBE8:
 527              	.LBE5:
 528              	.LBB9:
 162:Src/maze_info.c **** 
 163:Src/maze_info.c **** 	}
 164:Src/maze_info.c **** 	for (unsigned char i = 0; i < WALL_NUM; i++)
 165:Src/maze_info.c **** 	{
 166:Src/maze_info.c **** 		printf("+");
 529              		.loc 1 166 0 discriminator 3
 530 009e 2B20     		movs	r0, #43
 531 00a0 FFF7FEFF 		bl	putchar
 532              	.LVL56:
 167:Src/maze_info.c **** 		printf("---");
 533              		.loc 1 167 0 discriminator 3
 534 00a4 0848     		ldr	r0, .L42+8
 535 00a6 FFF7FEFF 		bl	printf
 536              	.LVL57:
 164:Src/maze_info.c **** 	{
 537              		.loc 1 164 0 discriminator 3
 538 00aa 0135     		adds	r5, r5, #1
 539              	.LVL58:
 540 00ac EDB2     		uxtb	r5, r5
 541              	.LVL59:
 542              	.L36:
ARM GAS  C:\Users\kotaro\AppData\Local\Temp\ccg27ypY.s 			page 14


 164:Src/maze_info.c **** 	{
 543              		.loc 1 164 0 is_stmt 0 discriminator 1
 544 00ae 0F2D     		cmp	r5, #15
 545 00b0 F5D9     		bls	.L37
 546              	.LBE9:
 168:Src/maze_info.c **** 	}
 169:Src/maze_info.c **** 	printf("+\r\n");
 547              		.loc 1 169 0 is_stmt 1
 548 00b2 0648     		ldr	r0, .L42+12
 549 00b4 FFF7FEFF 		bl	puts
 550              	.LVL60:
 170:Src/maze_info.c **** }...
 551              		.loc 1 170 0
 552 00b8 BDE87040 		pop	{r4, r5, r6, lr}
 553              	.LCFI7:
 554              		.cfi_restore 14
 555              		.cfi_restore 6
 556              		.cfi_restore 5
 557              		.cfi_restore 4
 558              		.cfi_def_cfa_offset 16
 559              	.LVL61:
 560 00bc 04B0     		add	sp, sp, #16
 561              	.LCFI8:
 562              		.cfi_def_cfa_offset 0
 563 00be 7047     		bx	lr
 564              	.L43:
 565              		.align	2
 566              	.L42:
 567 00c0 00000000 		.word	.LC0
 568 00c4 08000000 		.word	.LC2
 569 00c8 04000000 		.word	.LC1
 570 00cc 0C000000 		.word	.LC3
 571 00d0 10000000 		.word	.LC4
 572              		.cfi_endproc
 573              	.LFE129:
 575              		.comm	direction,1,1
 576              		.comm	position,1,1
 577              		.comm	maze,516,4
 578              		.section	.rodata.Maze_Printf.str1.4,"aMS",%progbits,1
 579              		.align	2
 580              	.LC0:
 581 0000 0D00     		.ascii	"\015\000"
 582 0002 0000     		.space	2
 583              	.LC1:
 584 0004 2D2D2D00 		.ascii	"---\000"
 585              	.LC2:
 586 0008 20202000 		.ascii	"   \000"
 587              	.LC3:
 588 000c 2B0D00   		.ascii	"+\015\000"
 589 000f 00       		.space	1
 590              	.LC4:
 591 0010 25336400 		.ascii	"%3d\000"
 592              		.text
 593              	.Letext0:
 594              		.file 2 "Inc/maze_info.h"
 595              		.file 3 "c:\\program files (x86)\\gnu tools arm embedded\\7 2017-q4-major\\arm-none-eabi\\include\
 596              		.file 4 "c:\\program files (x86)\\gnu tools arm embedded\\7 2017-q4-major\\arm-none-eabi\\include\
ARM GAS  C:\Users\kotaro\AppData\Local\Temp\ccg27ypY.s 			page 15


 597              		.file 5 "Inc/filter.h"
 598              		.file 6 "Drivers/CMSIS/Include/core_cm4.h"
 599              		.file 7 "Drivers/CMSIS/Device/ST/STM32F4xx/Include/system_stm32f4xx.h"
 600              		.file 8 "Drivers/CMSIS/Device/ST/STM32F4xx/Include/stm32f405xx.h"
 601              		.file 9 "c:\\program files (x86)\\gnu tools arm embedded\\7 2017-q4-major\\arm-none-eabi\\include\
 602              		.file 10 "c:\\program files (x86)\\gnu tools arm embedded\\7 2017-q4-major\\arm-none-eabi\\include
 603              		.file 11 "c:\\program files (x86)\\gnu tools arm embedded\\7 2017-q4-major\\lib\\gcc\\arm-none-eab
 604              		.file 12 "c:\\program files (x86)\\gnu tools arm embedded\\7 2017-q4-major\\arm-none-eabi\\include
 605              		.file 13 "Drivers/STM32F4xx_HAL_Driver/Inc/stm32f4xx_hal_def.h"
 606              		.file 14 "Drivers/STM32F4xx_HAL_Driver/Inc/stm32f4xx_hal_dma.h"
 607              		.file 15 "Drivers/STM32F4xx_HAL_Driver/Inc/stm32f4xx_hal_uart.h"
 608              		.file 16 "Inc/usart.h"
 609              		.file 17 "<built-in>"
 610              		.file 18 "c:\\program files (x86)\\gnu tools arm embedded\\7 2017-q4-major\\arm-none-eabi\\include
ARM GAS  C:\Users\kotaro\AppData\Local\Temp\ccg27ypY.s 			page 16

